; Function Attrs: nounwind uwtable
define ptr @l_List_forIn_x27_loop___at___private_Lean_Meta_Tactic_Grind_Inv_0__Lean_Meta_Grind_checkProofs___spec__2___boxed(ptr noundef %0, ptr noundef %1, ptr noundef %2, ptr noundef %3, ptr noundef %4, ptr noundef readnone captures(none) %5, ptr noundef %6, ptr noundef %7, ptr noundef %8, ptr noundef %9, ptr noundef %10, ptr noundef %11, ptr noundef %12, ptr noundef %13, ptr noundef %14) local_unnamed_addr #0 {
  %16 = tail call ptr @l_List_forIn_x27_loop___at___private_Lean_Meta_Tactic_Grind_Inv_0__Lean_Meta_Grind_checkProofs___spec__2(ptr noundef %0, ptr poison, ptr poison, ptr noundef %3, ptr noundef %4, ptr poison, ptr noundef %6, ptr noundef %7, ptr noundef %8, ptr noundef %9, ptr noundef %10, ptr noundef %11, ptr noundef %12, ptr noundef %13, ptr noundef %14)
  %17 = ptrtoint ptr %2 to i64
  %18 = and i64 %17, 1
  %.not = icmp eq i64 %18, 0
  br i1 %.not, label %19, label %lean_dec.exit18

19:                                               ; preds = %15
  %20 = load i32, ptr %2, align 4, !tbaa !8
  %21 = icmp sgt i32 %20, 1
  br i1 %21, label %22, label %24, !prof !11

22:                                               ; preds = %19
  %23 = add nsw i32 %20, -1
  store i32 %23, ptr %2, align 4, !tbaa !8
  br label %lean_dec.exit18

24:                                               ; preds = %19
  %.not.i = icmp eq i32 %20, 0
  br i1 %.not.i, label %lean_dec.exit18, label %25

25:                                               ; preds = %24
  tail call void @lean_dec_ref_cold(ptr noundef nonnull %2) #4
  br label %lean_dec.exit18

lean_dec.exit18:                                  ; preds = %25, %24, %22, %15
  %26 = ptrtoint ptr %1 to i64
  %27 = and i64 %26, 1
  %.not21 = icmp eq i64 %27, 0
  br i1 %.not21, label %28, label %lean_dec.exit

28:                                               ; preds = %lean_dec.exit18
  %29 = load i32, ptr %1, align 4, !tbaa !8
  %30 = icmp sgt i32 %29, 1
  br i1 %30, label %31, label %33, !prof !11

31:                                               ; preds = %28
  %32 = add nsw i32 %29, -1
  store i32 %32, ptr %1, align 4, !tbaa !8
  br label %lean_dec.exit

33:                                               ; preds = %28
  %.not.i19 = icmp eq i32 %29, 0
  br i1 %.not.i19, label %lean_dec.exit, label %34

34:                                               ; preds = %33
  tail call void @lean_dec_ref_cold(ptr noundef nonnull %1) #4
  br label %lean_dec.exit

lean_dec.exit:                                    ; preds = %34, %33, %31, %lean_dec.exit18
  ret ptr %16
}